target datalayout = "e-m:e-p270:32:32-p271:32:32-p272:64:64-i64:64-i128:128-f80:128-n8:16:32:64-S128"
target triple = "x86_64-unknown-linux-gnu"

%"class.cvc5::internal::NodeTemplate.0" = type { ptr }
%"class.cvc5::internal::NodeTemplate" = type { ptr }
%"class.cvc5::internal::theory::arith::linear::Constraint" = type <{ i32, i32, %"class.cvc5::internal::DeltaRational", ptr, %"class.cvc5::internal::NodeTemplate", ptr, i8, [7 x i8], i64, %"class.cvc5::internal::NodeTemplate.0", i64, i8, [7 x i8], %"struct.std::_Rb_tree_iterator", i8, [7 x i8] }>
%"class.cvc5::internal::DeltaRational" = type { %"class.cvc5::internal::Rational", %"class.cvc5::internal::Rational" }
%"class.cvc5::internal::Rational" = type { %class.__gmp_expr }
%class.__gmp_expr = type { [1 x %struct.__mpq_struct] }
%struct.__mpq_struct = type { %struct.__mpz_struct, %struct.__mpz_struct }
%struct.__mpz_struct = type { i32, i32, ptr }
%"struct.std::_Rb_tree_iterator" = type { ptr }
%"struct.std::_Vector_base" = type { %"struct.std::_Vector_base<const cvc5::internal::theory::arith::linear::Constraint *, std::allocator<const cvc5::internal::theory::arith::linear::Constraint *>>::_Vector_impl" }
%"struct.std::_Vector_base<const cvc5::internal::theory::arith::linear::Constraint *, std::allocator<const cvc5::internal::theory::arith::linear::Constraint *>>::_Vector_impl" = type { %"struct.std::_Vector_base<const cvc5::internal::theory::arith::linear::Constraint *, std::allocator<const cvc5::internal::theory::arith::linear::Constraint *>>::_Vector_impl_data" }
%"struct.std::_Vector_base<const cvc5::internal::theory::arith::linear::Constraint *, std::allocator<const cvc5::internal::theory::arith::linear::Constraint *>>::_Vector_impl_data" = type { ptr, ptr, ptr }
%"struct.std::_Vector_base.7" = type { %"struct.std::_Vector_base<cvc5::internal::theory::arith::linear::Constraint *, std::allocator<cvc5::internal::theory::arith::linear::Constraint *>>::_Vector_impl" }
%"struct.std::_Vector_base<cvc5::internal::theory::arith::linear::Constraint *, std::allocator<cvc5::internal::theory::arith::linear::Constraint *>>::_Vector_impl" = type { %"struct.std::_Vector_base<cvc5::internal::theory::arith::linear::Constraint *, std::allocator<cvc5::internal::theory::arith::linear::Constraint *>>::_Vector_impl_data" }
%"struct.std::_Vector_base<cvc5::internal::theory::arith::linear::Constraint *, std::allocator<cvc5::internal::theory::arith::linear::Constraint *>>::_Vector_impl_data" = type { ptr, ptr, ptr }
%"class.cvc5::internal::theory::arith::linear::ConstraintDatabase" = type { %"class.cvc5::internal::EnvObj", %"class.std::vector.11", %"class.std::unordered_map", %"class.cvc5::context::CDQueue", %"class.cvc5::context::CDList", ptr, ptr, ptr, ptr, ptr, %"class.cvc5::internal::theory::arith::linear::RaiseConflict", %"class.cvc5::internal::Rational", %"class.cvc5::internal::Rational", %"class.cvc5::internal::DenseSet", %"class.cvc5::internal::theory::arith::linear::ConstraintDatabase::Statistics" }
%"class.cvc5::internal::EnvObj" = type { ptr, ptr }
%"class.std::vector.11" = type { %"struct.std::_Vector_base.12" }
%"struct.std::_Vector_base.12" = type { %"struct.std::_Vector_base<cvc5::internal::theory::arith::linear::PerVariableDatabase *, std::allocator<cvc5::internal::theory::arith::linear::PerVariableDatabase *>>::_Vector_impl" }
%"struct.std::_Vector_base<cvc5::internal::theory::arith::linear::PerVariableDatabase *, std::allocator<cvc5::internal::theory::arith::linear::PerVariableDatabase *>>::_Vector_impl" = type { %"struct.std::_Vector_base<cvc5::internal::theory::arith::linear::PerVariableDatabase *, std::allocator<cvc5::internal::theory::arith::linear::PerVariableDatabase *>>::_Vector_impl_data" }
%"struct.std::_Vector_base<cvc5::internal::theory::arith::linear::PerVariableDatabase *, std::allocator<cvc5::internal::theory::arith::linear::PerVariableDatabase *>>::_Vector_impl_data" = type { ptr, ptr, ptr }
%"class.std::unordered_map" = type { %"class.std::_Hashtable" }
%"class.std::_Hashtable" = type { ptr, i64, %"struct.std::__detail::_Hash_node_base", i64, %"struct.std::__detail::_Prime_rehash_policy", ptr }
%"struct.std::__detail::_Hash_node_base" = type { ptr }
%"struct.std::__detail::_Prime_rehash_policy" = type { float, i64 }
%"class.cvc5::context::CDQueue" = type { %"class.cvc5::context::CDList.base", i64, i64 }
%"class.cvc5::context::CDList.base" = type <{ %"class.cvc5::context::ContextObj", %"class.std::vector", i64, i8, %"class.cvc5::context::DefaultCleanUp" }>
%"class.cvc5::context::ContextObj" = type { ptr, ptr, ptr, ptr, ptr }
%"class.std::vector" = type { %"struct.std::_Vector_base" }
%"class.cvc5::context::DefaultCleanUp" = type { i8 }
%"class.cvc5::context::CDList" = type <{ %"class.cvc5::context::ContextObj", %"class.std::vector", i64, i8, %"class.cvc5::context::DefaultCleanUp", [6 x i8] }>
%"class.cvc5::internal::theory::arith::linear::RaiseConflict" = type { ptr }
%"class.cvc5::internal::DenseSet" = type { %"class.cvc5::internal::DenseMap" }
%"class.cvc5::internal::DenseMap" = type { %"class.std::vector.21", %"class.std::vector.21", %"class.std::vector.26" }
%"class.std::vector.21" = type { %"struct.std::_Vector_base.22" }
%"struct.std::_Vector_base.22" = type { %"struct.std::_Vector_base<unsigned int, std::allocator<unsigned int>>::_Vector_impl" }
%"struct.std::_Vector_base<unsigned int, std::allocator<unsigned int>>::_Vector_impl" = type { %"struct.std::_Vector_base<unsigned int, std::allocator<unsigned int>>::_Vector_impl_data" }
%"struct.std::_Vector_base<unsigned int, std::allocator<unsigned int>>::_Vector_impl_data" = type { ptr, ptr, ptr }
%"class.std::vector.26" = type { %"struct.std::_Bvector_base" }
%"struct.std::_Bvector_base" = type { %"struct.std::_Bvector_base<std::allocator<bool>>::_Bvector_impl" }
%"struct.std::_Bvector_base<std::allocator<bool>>::_Bvector_impl" = type { %"struct.std::_Bvector_base<std::allocator<bool>>::_Bvector_impl_data" }
%"struct.std::_Bvector_base<std::allocator<bool>>::_Bvector_impl_data" = type { %"struct.std::_Bit_iterator", %"struct.std::_Bit_iterator", ptr }
%"struct.std::_Bit_iterator" = type { %"struct.std::_Bit_iterator_base.base", [4 x i8] }
%"struct.std::_Bit_iterator_base.base" = type <{ ptr, i32 }>
%"class.cvc5::internal::theory::arith::linear::ConstraintDatabase::Statistics" = type { %"class.cvc5::internal::IntStat", %"class.cvc5::internal::IntStat" }
%"class.cvc5::internal::IntStat" = type { %"class.cvc5::internal::ValueStat" }
%"class.cvc5::internal::ValueStat" = type { ptr }
%"struct.cvc5::internal::theory::arith::linear::ConstraintDatabase::Watches" = type { %"class.cvc5::context::CDList.34", %"class.cvc5::context::CDList.41", %"class.cvc5::context::CDList.43", %"class.cvc5::context::CDList.45" }
%"class.cvc5::context::CDList.34" = type <{ %"class.cvc5::context::ContextObj", %"class.std::vector.35", i64, i8, %"class.cvc5::internal::theory::arith::linear::Constraint::ConstraintRuleCleanup", [6 x i8] }>
%"class.std::vector.35" = type { %"struct.std::_Vector_base.36" }
%"struct.std::_Vector_base.36" = type { %"struct.std::_Vector_base<cvc5::internal::theory::arith::linear::ConstraintRule, std::allocator<cvc5::internal::theory::arith::linear::ConstraintRule>>::_Vector_impl" }
%"struct.std::_Vector_base<cvc5::internal::theory::arith::linear::ConstraintRule, std::allocator<cvc5::internal::theory::arith::linear::ConstraintRule>>::_Vector_impl" = type { %"struct.std::_Vector_base<cvc5::internal::theory::arith::linear::ConstraintRule, std::allocator<cvc5::internal::theory::arith::linear::ConstraintRule>>::_Vector_impl_data" }
%"struct.std::_Vector_base<cvc5::internal::theory::arith::linear::ConstraintRule, std::allocator<cvc5::internal::theory::arith::linear::ConstraintRule>>::_Vector_impl_data" = type { ptr, ptr, ptr }
%"class.cvc5::internal::theory::arith::linear::Constraint::ConstraintRuleCleanup" = type { i8 }
%"class.cvc5::context::CDList.41" = type <{ %"class.cvc5::context::ContextObj", %"class.std::vector.6", i64, i8, %"class.cvc5::internal::theory::arith::linear::Constraint::CanBePropagatedCleanup", [6 x i8] }>
%"class.std::vector.6" = type { %"struct.std::_Vector_base.7" }
%"class.cvc5::internal::theory::arith::linear::Constraint::CanBePropagatedCleanup" = type { i8 }
%"class.cvc5::context::CDList.43" = type <{ %"class.cvc5::context::ContextObj", %"class.std::vector.6", i64, i8, %"class.cvc5::internal::theory::arith::linear::Constraint::AssertionOrderCleanup", [6 x i8] }>
%"class.cvc5::internal::theory::arith::linear::Constraint::AssertionOrderCleanup" = type { i8 }
%"class.cvc5::context::CDList.45" = type <{ %"class.cvc5::context::ContextObj", %"class.std::vector.6", i64, i8, %"class.cvc5::internal::theory::arith::linear::Constraint::SplitCleanup", [6 x i8] }>
%"class.cvc5::internal::theory::arith::linear::Constraint::SplitCleanup" = type { i8 }

; Function Attrs: mustprogress uwtable
define hidden void @_ZN4cvc58internal6theory5arith6linear18ConstraintDatabase24pushCanBePropagatedWatchEPNS3_10ConstraintE(ptr noundef nonnull align 8 dereferenceable(488) %this, ptr noundef %c) #5 align 2 {
entry:
  %this.addr = alloca ptr, align 8
  %c.addr = alloca ptr, align 8
  store ptr %this, ptr %this.addr, align 8
  store ptr %c, ptr %c.addr, align 8
  %this1 = load ptr, ptr %this.addr, align 8
  %0 = load ptr, ptr %c.addr, align 8
  %d_canBePropagated = getelementptr inbounds %"class.cvc5::internal::theory::arith::linear::Constraint", ptr %0, i32 0, i32 6
  store i8 1, ptr %d_canBePropagated, align 8
  %d_watches = getelementptr inbounds %"class.cvc5::internal::theory::arith::linear::ConstraintDatabase", ptr %this1, i32 0, i32 5
  %1 = load ptr, ptr %d_watches, align 8
  %d_canBePropagatedWatches = getelementptr inbounds %"struct.cvc5::internal::theory::arith::linear::ConstraintDatabase::Watches", ptr %1, i32 0, i32 1
  call void @_ZN4cvc57context6CDListIPNS_8internal6theory5arith6linear10ConstraintENS6_22CanBePropagatedCleanupESaIS7_EE9push_backERKS7_(ptr noundef nonnull align 8 dereferenceable(74) %d_canBePropagatedWatches, ptr noundef nonnull align 8 dereferenceable(8) %c.addr)
  ret void
}