; Function Attrs: mustprogress uwtable
define hidden void @_ZN4cvc58internal6theory5arith6linear18ConstraintDatabase24pushCanBePropagatedWatchEPNS3_10ConstraintE(ptr nocapture noundef nonnull readonly align 8 dereferenceable(488) %this, ptr noundef %c) local_unnamed_addr #4 align 2 {
entry:
  %c.addr = alloca ptr, align 8
  store ptr %c, ptr %c.addr, align 8
  %d_canBePropagated = getelementptr inbounds i8, ptr %c, i64 96
  store i8 1, ptr %d_canBePropagated, align 8
  %d_watches = getelementptr inbounds i8, ptr %this, i64 272
  %0 = load ptr, ptr %d_watches, align 8
  %d_canBePropagatedWatches = getelementptr inbounds i8, ptr %0, i64 80
  call void @_ZN4cvc57context6CDListIPNS_8internal6theory5arith6linear10ConstraintENS6_22CanBePropagatedCleanupESaIS7_EE9push_backERKS7_(ptr noundef nonnull align 8 dereferenceable(74) %d_canBePropagatedWatches, ptr noundef nonnull align 8 dereferenceable(8) %c.addr)
  ret void
}